target datalayout = "e-m:e-p270:32:32-p271:32:32-p272:64:64-i64:64-i128:128-f80:128-n8:16:32:64-S128"
target triple = "x86_64-unknown-linux-gnu"

%"class.icu_75::CollationElementIterator" = type { %"class.icu_75::UObject", ptr, ptr, i32, i8, ptr, %"class.icu_75::UnicodeString" }
%"class.icu_75::UObject" = type { ptr }
%"class.icu_75::UnicodeString" = type { %"class.icu_75::Replaceable", %"union.icu_75::UnicodeString::StackBufferOrFields" }
%"class.icu_75::Replaceable" = type { %"class.icu_75::UObject" }
%"union.icu_75::UnicodeString::StackBufferOrFields" = type { %struct.anon.0, [32 x i8] }
%struct.anon.0 = type { i16, i32, i32, ptr }
%"class.icu_75::RuleBasedCollator" = type <{ %"class.icu_75::Collator", ptr, ptr, ptr, ptr, %"class.icu_75::Locale", i32, i8, [3 x i8] }>
%"class.icu_75::Collator" = type { %"class.icu_75::UObject" }
%"class.icu_75::Locale" = type <{ %"class.icu_75::UObject", [12 x i8], [6 x i8], [4 x i8], [2 x i8], i32, [4 x i8], ptr, [157 x i8], [3 x i8], ptr, i8, [7 x i8] }>
%"class.icu_75::SharedObject" = type { %"class.icu_75::UObject", i32, %"struct.std::atomic", ptr }
%"struct.std::atomic" = type { %"struct.std::__atomic_base" }
%"struct.std::__atomic_base" = type { i32 }
%"struct.icu_75::CollationTailoring" = type { %"class.icu_75::SharedObject", ptr, ptr, %"class.icu_75::UnicodeString", %"class.icu_75::Locale", [4 x i8], ptr, ptr, ptr, ptr, ptr, ptr, ptr, %"struct.icu_75::UInitOnce" }
%"struct.icu_75::UInitOnce" = type { %"struct.std::atomic", i32 }

; Function Attrs: mustprogress uwtable
define noundef i32 @_ZN6icu_7524CollationElementIterator15getMaxExpansionEPK10UHashtablei(ptr noundef %maxExpansions, i32 noundef %order) #1 align 2 {
entry:
  %retval = alloca i32, align 4
  %maxExpansions.addr = alloca ptr, align 8
  %order.addr = alloca i32, align 4
  %max = alloca i32, align 4
  store ptr %maxExpansions, ptr %maxExpansions.addr, align 8
  store i32 %order, ptr %order.addr, align 4
  %0 = load i32, ptr %order.addr, align 4
  %cmp = icmp eq i32 %0, 0
  br i1 %cmp, label %if.then, label %if.end

if.then:                                          ; preds = %entry
  store i32 1, ptr %retval, align 4
  br label %return

if.end:                                           ; preds = %entry
  %1 = load ptr, ptr %maxExpansions.addr, align 8
  %cmp1 = icmp ne ptr %1, null
  br i1 %cmp1, label %land.lhs.true, label %if.end4

land.lhs.true:                                    ; preds = %if.end
  %2 = load ptr, ptr %maxExpansions.addr, align 8
  %3 = load i32, ptr %order.addr, align 4
  %call = call i32 @uhash_igeti_75(ptr noundef %2, i32 noundef %3)
  store i32 %call, ptr %max, align 4
  %cmp2 = icmp ne i32 %call, 0
  br i1 %cmp2, label %if.then3, label %if.end4

if.then3:                                         ; preds = %land.lhs.true
  %4 = load i32, ptr %max, align 4
  store i32 %4, ptr %retval, align 4
  br label %return

if.end4:                                          ; preds = %land.lhs.true, %if.end
  %5 = load i32, ptr %order.addr, align 4
  %and = and i32 %5, 192
  %cmp5 = icmp eq i32 %and, 192
  br i1 %cmp5, label %if.then6, label %if.else

if.then6:                                         ; preds = %if.end4
  store i32 2, ptr %retval, align 4
  br label %return

if.else:                                          ; preds = %if.end4
  store i32 1, ptr %retval, align 4
  br label %return

return:                                           ; preds = %if.else, %if.then6, %if.then3, %if.then
  %6 = load i32, ptr %retval, align 4
  ret i32 %6
}

; Function Attrs: mustprogress uwtable
define noundef i32 @_ZNK6icu_7524CollationElementIterator15getMaxExpansionEi(ptr noundef nonnull align 8 dereferenceable(104) %this, i32 noundef %order) #1 align 2 {
entry:
  %this.addr = alloca ptr, align 8
  %order.addr = alloca i32, align 4
  store ptr %this, ptr %this.addr, align 8
  store i32 %order, ptr %order.addr, align 4
  %this1 = load ptr, ptr %this.addr, align 8
  %rbc_ = getelementptr inbounds %"class.icu_75::CollationElementIterator", ptr %this1, i32 0, i32 2
  %0 = load ptr, ptr %rbc_, align 8
  %tailoring = getelementptr inbounds %"class.icu_75::RuleBasedCollator", ptr %0, i32 0, i32 3
  %1 = load ptr, ptr %tailoring, align 8
  %maxExpansions = getelementptr inbounds %"struct.icu_75::CollationTailoring", ptr %1, i32 0, i32 12
  %2 = load ptr, ptr %maxExpansions, align 8
  %3 = load i32, ptr %order.addr, align 4
  %call = call noundef i32 @_ZN6icu_7524CollationElementIterator15getMaxExpansionEPK10UHashtablei(ptr noundef %2, i32 noundef %3)
  ret i32 %call
}