; Function Attrs: mustprogress uwtable
define noundef i32 @_ZNK6icu_7524CollationElementIterator15getMaxExpansionEi(ptr nocapture noundef nonnull readonly align 8 dereferenceable(104) %this, i32 noundef %order) local_unnamed_addr #1 align 2 {
entry:
  %rbc_ = getelementptr inbounds i8, ptr %this, i64 16
  %0 = load ptr, ptr %rbc_, align 8
  %tailoring = getelementptr inbounds i8, ptr %0, i64 24
  %1 = load ptr, ptr %tailoring, align 8
  %maxExpansions = getelementptr inbounds i8, ptr %1, i64 384
  %2 = load ptr, ptr %maxExpansions, align 8
  %cmp.i = icmp eq i32 %order, 0
  br i1 %cmp.i, label %_ZN6icu_7524CollationElementIterator15getMaxExpansionEPK10UHashtablei.exit, label %if.end.i

if.end.i:                                         ; preds = %entry
  %cmp1.not.i = icmp eq ptr %2, null
  br i1 %cmp1.not.i, label %if.end4.i, label %land.lhs.true.i

land.lhs.true.i:                                  ; preds = %if.end.i
  %call.i = tail call i32 @uhash_igeti_75(ptr noundef nonnull %2, i32 noundef %order)
  %cmp2.not.i = icmp eq i32 %call.i, 0
  br i1 %cmp2.not.i, label %if.end4.i, label %_ZN6icu_7524CollationElementIterator15getMaxExpansionEPK10UHashtablei.exit

if.end4.i:                                        ; preds = %land.lhs.true.i, %if.end.i
  %and.i = and i32 %order, 192
  %cmp5.i = icmp eq i32 %and.i, 192
  %..i = select i1 %cmp5.i, i32 2, i32 1
  br label %_ZN6icu_7524CollationElementIterator15getMaxExpansionEPK10UHashtablei.exit

_ZN6icu_7524CollationElementIterator15getMaxExpansionEPK10UHashtablei.exit: ; preds = %entry, %land.lhs.true.i, %if.end4.i
  %retval.0.i = phi i32 [ 1, %entry ], [ %call.i, %land.lhs.true.i ], [ %..i, %if.end4.i ]
  ret i32 %retval.0.i
}